target datalayout = "e-m:e-p270:32:32-p271:32:32-p272:64:64-i64:64-i128:128-f80:128-n8:16:32:64-S128"
target triple = "x86_64-pc-linux-gnu"

%struct.PJconsts = type { ptr, ptr, ptr, ptr, ptr, ptr, ptr, ptr, ptr, ptr, ptr, ptr, i32, ptr, ptr, ptr, ptr, ptr, ptr, ptr, ptr, double, double, double, double, double, double, double, double, double, double, double, double, double, double, double, double, double, double, double, double, double, double, i32, i32, i32, i32, i32, i32, i32, i32, i32, i32, i32, ptr, ptr, ptr, ptr, ptr, ptr, double, double, double, double, double, double, double, double, double, double, double, i32, [7 x double], i32, ptr, ptr, double, double, i32, [4 x i8], %"class.std::shared_ptr", i8, double, i8, %"class.std::__cxx11::basic_string", %"class.std::__cxx11::basic_string", %"class.std::__cxx11::basic_string", i8, %"class.std::vector", i32, %"class.std::vector.3", i32, i8, i8, i8, ptr }
%"class.std::shared_ptr" = type { %"class.std::__shared_ptr" }
%"class.std::__shared_ptr" = type { ptr, %"class.std::__shared_count" }
%"class.std::__shared_count" = type { ptr }
%"class.std::__cxx11::basic_string" = type { %"struct.std::__cxx11::basic_string<char>::_Alloc_hider", i64, %union.anon }
%"struct.std::__cxx11::basic_string<char>::_Alloc_hider" = type { ptr }
%union.anon = type { i64, [8 x i8] }
%"class.std::vector" = type { %"struct.std::_Vector_base" }
%"struct.std::_Vector_base" = type { %"struct.std::_Vector_base<osgeo::proj::operation::GridDescription, std::allocator<osgeo::proj::operation::GridDescription>>::_Vector_impl" }
%"struct.std::_Vector_base<osgeo::proj::operation::GridDescription, std::allocator<osgeo::proj::operation::GridDescription>>::_Vector_impl" = type { %"struct.std::_Vector_base<osgeo::proj::operation::GridDescription, std::allocator<osgeo::proj::operation::GridDescription>>::_Vector_impl_data" }
%"struct.std::_Vector_base<osgeo::proj::operation::GridDescription, std::allocator<osgeo::proj::operation::GridDescription>>::_Vector_impl_data" = type { ptr, ptr, ptr }
%"class.std::vector.3" = type { %"struct.std::_Vector_base.4" }
%"struct.std::_Vector_base.4" = type { %"struct.std::_Vector_base<PJCoordOperation, std::allocator<PJCoordOperation>>::_Vector_impl" }
%"struct.std::_Vector_base<PJCoordOperation, std::allocator<PJCoordOperation>>::_Vector_impl" = type { %"struct.std::_Vector_base<PJCoordOperation, std::allocator<PJCoordOperation>>::_Vector_impl_data" }
%"struct.std::_Vector_base<PJCoordOperation, std::allocator<PJCoordOperation>>::_Vector_impl_data" = type { ptr, ptr, ptr }
%"struct.(anonymous namespace)::pj_nsper_data" = type { double, double, double, double, double, double, double, double, double, double, double, double, i32, i32 }
%struct.PJ_LP = type { double, double }
%struct.PJ_XY = type { double, double }

; Function Attrs: mustprogress uwtable
define internal { double, double } @_ZL15nsper_s_forward5PJ_LPP8PJconsts(double %0, double %1, ptr noundef %2) #0 {
  %4 = alloca %struct.PJ_XY, align 8
  %5 = alloca %struct.PJ_LP, align 8
  %6 = alloca ptr, align 8
  %7 = alloca ptr, align 8
  %8 = alloca double, align 8
  %9 = alloca double, align 8
  %10 = alloca double, align 8
  %11 = alloca i32, align 4
  %12 = alloca double, align 8
  %13 = alloca double, align 8
  %14 = getelementptr inbounds nuw { double, double }, ptr %5, i32 0, i32 0
  store double %0, ptr %14, align 8
  %15 = getelementptr inbounds nuw { double, double }, ptr %5, i32 0, i32 1
  store double %1, ptr %15, align 8
  store ptr %2, ptr %6, align 8, !tbaa !3
  call void @llvm.memset.p0.i64(ptr align 8 %4, i8 0, i64 16, i1 false)
  call void @llvm.lifetime.start.p0(i64 8, ptr %7) #7
  %16 = load ptr, ptr %6, align 8, !tbaa !3
  %17 = getelementptr inbounds nuw %struct.PJconsts, ptr %16, i32 0, i32 11
  %18 = load ptr, ptr %17, align 8, !tbaa !43
  store ptr %18, ptr %7, align 8, !tbaa !41
  call void @llvm.lifetime.start.p0(i64 8, ptr %8) #7
  call void @llvm.lifetime.start.p0(i64 8, ptr %9) #7
  call void @llvm.lifetime.start.p0(i64 8, ptr %10) #7
  %19 = getelementptr inbounds nuw %struct.PJ_LP, ptr %5, i32 0, i32 1
  %20 = load double, ptr %19, align 8, !tbaa !75
  %21 = call double @sin(double noundef %20) #7, !tbaa !53
  store double %21, ptr %10, align 8, !tbaa !65
  %22 = getelementptr inbounds nuw %struct.PJ_LP, ptr %5, i32 0, i32 1
  %23 = load double, ptr %22, align 8, !tbaa !75
  %24 = call double @cos(double noundef %23) #7, !tbaa !53
  store double %24, ptr %9, align 8, !tbaa !65
  %25 = getelementptr inbounds nuw %struct.PJ_LP, ptr %5, i32 0, i32 0
  %26 = load double, ptr %25, align 8, !tbaa !73
  %27 = call double @cos(double noundef %26) #7, !tbaa !53
  store double %27, ptr %8, align 8, !tbaa !65
  %28 = load ptr, ptr %7, align 8, !tbaa !41
  %29 = getelementptr inbounds nuw %"struct.(anonymous namespace)::pj_nsper_data", ptr %28, i32 0, i32 12
  %30 = load i32, ptr %29, align 8, !tbaa !52
  switch i32 %30, label %57 [
    i32 3, label %31
    i32 2, label %45
    i32 1, label %50
    i32 0, label %54
  ]

31:                                               ; preds = %3
  %32 = load ptr, ptr %7, align 8, !tbaa !41
  %33 = getelementptr inbounds nuw %"struct.(anonymous namespace)::pj_nsper_data", ptr %32, i32 0, i32 1
  %34 = load double, ptr %33, align 8, !tbaa !54
  %35 = load double, ptr %10, align 8, !tbaa !65
  %36 = load ptr, ptr %7, align 8, !tbaa !41
  %37 = getelementptr inbounds nuw %"struct.(anonymous namespace)::pj_nsper_data", ptr %36, i32 0, i32 2
  %38 = load double, ptr %37, align 8, !tbaa !55
  %39 = load double, ptr %9, align 8, !tbaa !65
  %40 = fmul double %38, %39
  %41 = load double, ptr %8, align 8, !tbaa !65
  %42 = fmul double %40, %41
  %43 = call double @llvm.fmuladd.f64(double %34, double %35, double %42)
  %44 = getelementptr inbounds nuw %struct.PJ_XY, ptr %4, i32 0, i32 1
  store double %43, ptr %44, align 8, !tbaa !70
  br label %57

45:                                               ; preds = %3
  %46 = load double, ptr %9, align 8, !tbaa !65
  %47 = load double, ptr %8, align 8, !tbaa !65
  %48 = fmul double %46, %47
  %49 = getelementptr inbounds nuw %struct.PJ_XY, ptr %4, i32 0, i32 1
  store double %48, ptr %49, align 8, !tbaa !70
  br label %57

50:                                               ; preds = %3
  %51 = load double, ptr %10, align 8, !tbaa !65
  %52 = fneg double %51
  %53 = getelementptr inbounds nuw %struct.PJ_XY, ptr %4, i32 0, i32 1
  store double %52, ptr %53, align 8, !tbaa !70
  br label %57

54:                                               ; preds = %3
  %55 = load double, ptr %10, align 8, !tbaa !65
  %56 = getelementptr inbounds nuw %struct.PJ_XY, ptr %4, i32 0, i32 1
  store double %55, ptr %56, align 8, !tbaa !70
  br label %57

57:                                               ; preds = %3, %54, %50, %45, %31
  %58 = getelementptr inbounds nuw %struct.PJ_XY, ptr %4, i32 0, i32 1
  %59 = load double, ptr %58, align 8, !tbaa !70
  %60 = load ptr, ptr %7, align 8, !tbaa !41
  %61 = getelementptr inbounds nuw %"struct.(anonymous namespace)::pj_nsper_data", ptr %60, i32 0, i32 4
  %62 = load double, ptr %61, align 8, !tbaa !59
  %63 = fcmp olt double %59, %62
  br i1 %63, label %64, label %67

64:                                               ; preds = %57
  %65 = load ptr, ptr %6, align 8, !tbaa !3
  %66 = call i32 @proj_errno_set(ptr noundef %65, i32 noundef 2050)
  store i32 1, ptr %11, align 4
  br label %179

67:                                               ; preds = %57
  %68 = load ptr, ptr %7, align 8, !tbaa !41
  %69 = getelementptr inbounds nuw %"struct.(anonymous namespace)::pj_nsper_data", ptr %68, i32 0, i32 5
  %70 = load double, ptr %69, align 8, !tbaa !57
  %71 = load ptr, ptr %7, align 8, !tbaa !41
  %72 = getelementptr inbounds nuw %"struct.(anonymous namespace)::pj_nsper_data", ptr %71, i32 0, i32 3
  %73 = load double, ptr %72, align 8, !tbaa !58
  %74 = getelementptr inbounds nuw %struct.PJ_XY, ptr %4, i32 0, i32 1
  %75 = load double, ptr %74, align 8, !tbaa !70
  %76 = fsub double %73, %75
  %77 = fdiv double %70, %76
  %78 = getelementptr inbounds nuw %struct.PJ_XY, ptr %4, i32 0, i32 1
  store double %77, ptr %78, align 8, !tbaa !70
  %79 = getelementptr inbounds nuw %struct.PJ_XY, ptr %4, i32 0, i32 1
  %80 = load double, ptr %79, align 8, !tbaa !70
  %81 = load double, ptr %9, align 8, !tbaa !65
  %82 = fmul double %80, %81
  %83 = getelementptr inbounds nuw %struct.PJ_LP, ptr %5, i32 0, i32 0
  %84 = load double, ptr %83, align 8, !tbaa !73
  %85 = call double @sin(double noundef %84) #7, !tbaa !53
  %86 = fmul double %82, %85
  %87 = getelementptr inbounds nuw %struct.PJ_XY, ptr %4, i32 0, i32 0
  store double %86, ptr %87, align 8, !tbaa !72
  %88 = load ptr, ptr %7, align 8, !tbaa !41
  %89 = getelementptr inbounds nuw %"struct.(anonymous namespace)::pj_nsper_data", ptr %88, i32 0, i32 12
  %90 = load i32, ptr %89, align 8, !tbaa !52
  switch i32 %90, label %123 [
    i32 3, label %91
    i32 2, label %108
    i32 0, label %113
    i32 1, label %116
  ]

91:                                               ; preds = %67
  %92 = load ptr, ptr %7, align 8, !tbaa !41
  %93 = getelementptr inbounds nuw %"struct.(anonymous namespace)::pj_nsper_data", ptr %92, i32 0, i32 2
  %94 = load double, ptr %93, align 8, !tbaa !55
  %95 = load double, ptr %10, align 8, !tbaa !65
  %96 = load ptr, ptr %7, align 8, !tbaa !41
  %97 = getelementptr inbounds nuw %"struct.(anonymous namespace)::pj_nsper_data", ptr %96, i32 0, i32 1
  %98 = load double, ptr %97, align 8, !tbaa !54
  %99 = load double, ptr %9, align 8, !tbaa !65
  %100 = fmul double %98, %99
  %101 = load double, ptr %8, align 8, !tbaa !65
  %102 = fmul double %100, %101
  %103 = fneg double %102
  %104 = call double @llvm.fmuladd.f64(double %94, double %95, double %103)
  %105 = getelementptr inbounds nuw %struct.PJ_XY, ptr %4, i32 0, i32 1
  %106 = load double, ptr %105, align 8, !tbaa !70
  %107 = fmul double %106, %104
  store double %107, ptr %105, align 8, !tbaa !70
  br label %123

108:                                              ; preds = %67
  %109 = load double, ptr %10, align 8, !tbaa !65
  %110 = getelementptr inbounds nuw %struct.PJ_XY, ptr %4, i32 0, i32 1
  %111 = load double, ptr %110, align 8, !tbaa !70
  %112 = fmul double %111, %109
  store double %112, ptr %110, align 8, !tbaa !70
  br label %123

113:                                              ; preds = %67
  %114 = load double, ptr %8, align 8, !tbaa !65
  %115 = fneg double %114
  store double %115, ptr %8, align 8, !tbaa !65
  br label %116

116:                                              ; preds = %67, %113
  %117 = load double, ptr %9, align 8, !tbaa !65
  %118 = load double, ptr %8, align 8, !tbaa !65
  %119 = fmul double %117, %118
  %120 = getelementptr inbounds nuw %struct.PJ_XY, ptr %4, i32 0, i32 1
  %121 = load double, ptr %120, align 8, !tbaa !70
  %122 = fmul double %121, %119
  store double %122, ptr %120, align 8, !tbaa !70
  br label %123

123:                                              ; preds = %67, %116, %108, %91
  %124 = load ptr, ptr %7, align 8, !tbaa !41
  %125 = getelementptr inbounds nuw %"struct.(anonymous namespace)::pj_nsper_data", ptr %124, i32 0, i32 13
  %126 = load i32, ptr %125, align 4, !tbaa !44
  %127 = icmp ne i32 %126, 0
  br i1 %127, label %128, label %178

128:                                              ; preds = %123
  call void @llvm.lifetime.start.p0(i64 8, ptr %12) #7
  call void @llvm.lifetime.start.p0(i64 8, ptr %13) #7
  %129 = getelementptr inbounds nuw %struct.PJ_XY, ptr %4, i32 0, i32 1
  %130 = load double, ptr %129, align 8, !tbaa !70
  %131 = load ptr, ptr %7, align 8, !tbaa !41
  %132 = getelementptr inbounds nuw %"struct.(anonymous namespace)::pj_nsper_data", ptr %131, i32 0, i32 8
  %133 = load double, ptr %132, align 8, !tbaa !66
  %134 = getelementptr inbounds nuw %struct.PJ_XY, ptr %4, i32 0, i32 0
  %135 = load double, ptr %134, align 8, !tbaa !72
  %136 = load ptr, ptr %7, align 8, !tbaa !41
  %137 = getelementptr inbounds nuw %"struct.(anonymous namespace)::pj_nsper_data", ptr %136, i32 0, i32 9
  %138 = load double, ptr %137, align 8, !tbaa !67
  %139 = fmul double %135, %138
  %140 = call double @llvm.fmuladd.f64(double %130, double %133, double %139)
  store double %140, ptr %12, align 8, !tbaa !65
  %141 = load double, ptr %12, align 8, !tbaa !65
  %142 = load ptr, ptr %7, align 8, !tbaa !41
  %143 = getelementptr inbounds nuw %"struct.(anonymous namespace)::pj_nsper_data", ptr %142, i32 0, i32 10
  %144 = load double, ptr %143, align 8, !tbaa !69
  %145 = fmul double %141, %144
  %146 = load ptr, ptr %7, align 8, !tbaa !41
  %147 = getelementptr inbounds nuw %"struct.(anonymous namespace)::pj_nsper_data", ptr %146, i32 0, i32 7
  %148 = load double, ptr %147, align 8, !tbaa !60
  %149 = load ptr, ptr %7, align 8, !tbaa !41
  %150 = getelementptr inbounds nuw %"struct.(anonymous namespace)::pj_nsper_data", ptr %149, i32 0, i32 11
  %151 = load double, ptr %150, align 8, !tbaa !68
  %152 = call double @llvm.fmuladd.f64(double %145, double %148, double %151)
  %153 = fdiv double 1.000000e+00, %152
  store double %153, ptr %13, align 8, !tbaa !65
  %154 = getelementptr inbounds nuw %struct.PJ_XY, ptr %4, i32 0, i32 0
  %155 = load double, ptr %154, align 8, !tbaa !72
  %156 = load ptr, ptr %7, align 8, !tbaa !41
  %157 = getelementptr inbounds nuw %"struct.(anonymous namespace)::pj_nsper_data", ptr %156, i32 0, i32 8
  %158 = load double, ptr %157, align 8, !tbaa !66
  %159 = getelementptr inbounds nuw %struct.PJ_XY, ptr %4, i32 0, i32 1
  %160 = load double, ptr %159, align 8, !tbaa !70
  %161 = load ptr, ptr %7, align 8, !tbaa !41
  %162 = getelementptr inbounds nuw %"struct.(anonymous namespace)::pj_nsper_data", ptr %161, i32 0, i32 9
  %163 = load double, ptr %162, align 8, !tbaa !67
  %164 = fmul double %160, %163
  %165 = fneg double %164
  %166 = call double @llvm.fmuladd.f64(double %155, double %158, double %165)
  %167 = load ptr, ptr %7, align 8, !tbaa !41
  %168 = getelementptr inbounds nuw %"struct.(anonymous namespace)::pj_nsper_data", ptr %167, i32 0, i32 11
  %169 = load double, ptr %168, align 8, !tbaa !68
  %170 = fmul double %166, %169
  %171 = load double, ptr %13, align 8, !tbaa !65
  %172 = fmul double %170, %171
  %173 = getelementptr inbounds nuw %struct.PJ_XY, ptr %4, i32 0, i32 0
  store double %172, ptr %173, align 8, !tbaa !72
  %174 = load double, ptr %12, align 8, !tbaa !65
  %175 = load double, ptr %13, align 8, !tbaa !65
  %176 = fmul double %174, %175
  %177 = getelementptr inbounds nuw %struct.PJ_XY, ptr %4, i32 0, i32 1
  store double %176, ptr %177, align 8, !tbaa !70
  call void @llvm.lifetime.end.p0(i64 8, ptr %13) #7
  call void @llvm.lifetime.end.p0(i64 8, ptr %12) #7
  br label %178

178:                                              ; preds = %128, %123
  store i32 1, ptr %11, align 4
  br label %179

179:                                              ; preds = %178, %64
  call void @llvm.lifetime.end.p0(i64 8, ptr %10) #7
  call void @llvm.lifetime.end.p0(i64 8, ptr %9) #7
  call void @llvm.lifetime.end.p0(i64 8, ptr %8) #7
  call void @llvm.lifetime.end.p0(i64 8, ptr %7) #7
  %180 = load { double, double }, ptr %4, align 8
  ret { double, double } %180
}