; Function Attrs: mustprogress uwtable
define internal { double, double } @_ZL15nsper_s_forward5PJ_LPP8PJconsts(double %0, double %1, ptr noundef %2) #0 {
  %4 = getelementptr inbounds nuw i8, ptr %2, i64 88
  %5 = load ptr, ptr %4, align 8, !tbaa !3
  %6 = tail call double @sin(double noundef %1) #6, !tbaa !48
  %7 = tail call double @cos(double noundef %1) #6, !tbaa !48
  %8 = tail call double @cos(double noundef %0) #6, !tbaa !48
  %9 = getelementptr inbounds nuw i8, ptr %5, i64 96
  %10 = load i32, ptr %9, align 8, !tbaa !47
  switch i32 %10, label %24 [
    i32 3, label %11
    i32 2, label %19
    i32 1, label %21
    i32 0, label %23
  ]

11:                                               ; preds = %3
  %12 = getelementptr inbounds nuw i8, ptr %5, i64 8
  %13 = load double, ptr %12, align 8, !tbaa !49
  %14 = getelementptr inbounds nuw i8, ptr %5, i64 16
  %15 = load double, ptr %14, align 8, !tbaa !50
  %16 = fmul double %7, %15
  %17 = fmul double %8, %16
  %18 = tail call double @llvm.fmuladd.f64(double %13, double %6, double %17)
  br label %24

19:                                               ; preds = %3
  %20 = fmul double %7, %8
  br label %24

21:                                               ; preds = %3
  %22 = fneg double %6
  br label %24

23:                                               ; preds = %3
  br label %24

24:                                               ; preds = %23, %21, %19, %11, %3
  %.sroa.6.0 = phi double [ 0.000000e+00, %3 ], [ %6, %23 ], [ %22, %21 ], [ %20, %19 ], [ %18, %11 ]
  %25 = getelementptr inbounds nuw i8, ptr %5, i64 32
  %26 = load double, ptr %25, align 8, !tbaa !54
  %27 = fcmp olt double %.sroa.6.0, %26
  br i1 %27, label %28, label %30

28:                                               ; preds = %24
  %29 = tail call i32 @proj_errno_set(ptr noundef nonnull %2, i32 noundef 2050)
  br label %82

30:                                               ; preds = %24
  %31 = getelementptr inbounds nuw i8, ptr %5, i64 40
  %32 = load double, ptr %31, align 8, !tbaa !52
  %33 = getelementptr inbounds nuw i8, ptr %5, i64 24
  %34 = load double, ptr %33, align 8, !tbaa !53
  %35 = fsub double %34, %.sroa.6.0
  %36 = fdiv double %32, %35
  %37 = fmul double %7, %36
  %38 = tail call double @sin(double noundef %0) #6, !tbaa !48
  %39 = fmul double %38, %37
  switch i32 %10, label %57 [
    i32 3, label %40
    i32 2, label %50
    i32 0, label %52
    i32 1, label %54
  ]

40:                                               ; preds = %30
  %41 = getelementptr inbounds nuw i8, ptr %5, i64 16
  %42 = load double, ptr %41, align 8, !tbaa !50
  %43 = getelementptr inbounds nuw i8, ptr %5, i64 8
  %44 = load double, ptr %43, align 8, !tbaa !49
  %45 = fmul double %7, %44
  %46 = fneg double %8
  %47 = fmul double %45, %46
  %48 = tail call double @llvm.fmuladd.f64(double %42, double %6, double %47)
  %49 = fmul double %36, %48
  br label %57

50:                                               ; preds = %30
  %51 = fmul double %6, %36
  br label %57

52:                                               ; preds = %30
  %53 = fneg double %8
  br label %54

54:                                               ; preds = %52, %30
  %.0 = phi double [ %8, %30 ], [ %53, %52 ]
  %55 = fmul double %7, %.0
  %56 = fmul double %36, %55
  br label %57

57:                                               ; preds = %54, %50, %40, %30
  %.sroa.6.2 = phi double [ %36, %30 ], [ %56, %54 ], [ %51, %50 ], [ %49, %40 ]
  %58 = getelementptr inbounds nuw i8, ptr %5, i64 100
  %59 = load i32, ptr %58, align 4, !tbaa !60
  %.not = icmp eq i32 %59, 0
  br i1 %.not, label %82, label %60

60:                                               ; preds = %57
  %61 = getelementptr inbounds nuw i8, ptr %5, i64 64
  %62 = load double, ptr %61, align 8, !tbaa !61
  %63 = getelementptr inbounds nuw i8, ptr %5, i64 72
  %64 = load double, ptr %63, align 8, !tbaa !62
  %65 = fmul double %39, %64
  %66 = tail call double @llvm.fmuladd.f64(double %.sroa.6.2, double %62, double %65)
  %67 = getelementptr inbounds nuw i8, ptr %5, i64 80
  %68 = load double, ptr %67, align 8, !tbaa !64
  %69 = fmul double %68, %66
  %70 = getelementptr inbounds nuw i8, ptr %5, i64 56
  %71 = load double, ptr %70, align 8, !tbaa !55
  %72 = getelementptr inbounds nuw i8, ptr %5, i64 88
  %73 = load double, ptr %72, align 8, !tbaa !63
  %74 = tail call double @llvm.fmuladd.f64(double %69, double %71, double %73)
  %75 = fdiv double 1.000000e+00, %74
  %76 = fneg double %64
  %77 = fmul double %.sroa.6.2, %76
  %78 = tail call double @llvm.fmuladd.f64(double %39, double %62, double %77)
  %79 = fmul double %78, %73
  %80 = fmul double %79, %75
  %81 = fmul double %66, %75
  br label %82

82:                                               ; preds = %57, %60, %28
  %.sroa.6.1 = phi double [ %.sroa.6.0, %28 ], [ %81, %60 ], [ %.sroa.6.2, %57 ]
  %.sroa.041.0 = phi double [ 0.000000e+00, %28 ], [ %80, %60 ], [ %39, %57 ]
  %.fca.0.insert = insertvalue { double, double } poison, double %.sroa.041.0, 0
  %.fca.1.insert = insertvalue { double, double } %.fca.0.insert, double %.sroa.6.1, 1
  ret { double, double } %.fca.1.insert
}